target datalayout = "e-m:e-p270:32:32-p271:32:32-p272:64:64-i64:64-i128:128-f80:128-n8:16:32:64-S128"
target triple = "x86_64-pc-linux-gnu"

%struct.AVFilterContext = type { ptr, ptr, ptr, ptr, ptr, i32, ptr, ptr, i32, ptr, ptr, i32, i32, ptr, ptr, ptr, ptr, i32, ptr, i32, i32 }
%struct.LoudNormContext = type { ptr, double, double, double, double, double, double, double, double, i32, i32, i32, ptr, i32, i32, i32, [30 x double], [21 x double], double, i32, [2 x double], ptr, ptr, i32, i32, i32, i32, i32, i32, i32, i32, [30 x i64], i32, i32, i32, i32, ptr, ptr }
%struct.AVFilterLink = type { ptr, ptr, ptr, ptr, i32, i32, i32, i32, %struct.AVRational, i32, i32, i32, %struct.AVChannelLayout, %struct.AVRational, ptr, i32, %struct.AVFilterFormatsConfig, %struct.AVFilterFormatsConfig }
%struct.AVChannelLayout = type { i32, i32, %union.anon.1, ptr }
%union.anon.1 = type { i64 }
%struct.AVRational = type { i32, i32 }
%struct.AVFilterFormatsConfig = type { ptr, ptr, ptr, ptr, ptr }

; Function Attrs: nounwind uwtable
define internal void @init_gaussian_filter(ptr noundef %0) #1 {
  %2 = alloca ptr, align 8
  %3 = alloca double, align 8
  %4 = alloca double, align 8
  %5 = alloca double, align 8
  %6 = alloca i32, align 4
  %7 = alloca i32, align 4
  %8 = alloca double, align 8
  %9 = alloca double, align 8
  %10 = alloca i32, align 4
  store ptr %0, ptr %2, align 8, !tbaa !22
  call void @llvm.lifetime.start.p0(i64 8, ptr %3) #7
  store double 0.000000e+00, ptr %3, align 8, !tbaa !31
  call void @llvm.lifetime.start.p0(i64 8, ptr %4) #7
  store double 3.500000e+00, ptr %4, align 8, !tbaa !31
  call void @llvm.lifetime.start.p0(i64 8, ptr %5) #7
  call void @llvm.lifetime.start.p0(i64 4, ptr %6) #7
  call void @llvm.lifetime.start.p0(i64 4, ptr %7) #7
  store i32 10, ptr %7, align 4, !tbaa !40
  call void @llvm.lifetime.start.p0(i64 8, ptr %8) #7
  %11 = call nsz double @llvm.sqrt.f64(double 0x401921FB54442D18)
  %12 = fmul nsz double 3.500000e+00, %11
  %13 = fdiv nsz double 1.000000e+00, %12
  store double %13, ptr %8, align 8, !tbaa !31
  call void @llvm.lifetime.start.p0(i64 8, ptr %9) #7
  %14 = call nsz double @llvm.pow.f64(double 3.500000e+00, double 2.000000e+00)
  %15 = fmul nsz double 2.000000e+00, %14
  store double %15, ptr %9, align 8, !tbaa !31
  store i32 0, ptr %6, align 4, !tbaa !40
  br label %16

16:                                               ; preds = %44, %1
  %17 = load i32, ptr %6, align 4, !tbaa !40
  %18 = icmp slt i32 %17, 21
  br i1 %18, label %19, label %47

19:                                               ; preds = %16
  call void @llvm.lifetime.start.p0(i64 4, ptr %10) #7
  %20 = load i32, ptr %6, align 4, !tbaa !40
  %21 = sub nsw i32 %20, 10
  store i32 %21, ptr %10, align 4, !tbaa !40
  %22 = load double, ptr %8, align 8, !tbaa !31
  %23 = load i32, ptr %10, align 4, !tbaa !40
  %24 = sitofp i32 %23 to double
  %25 = call nsz double @llvm.pow.f64(double %24, double 2.000000e+00)
  %26 = load double, ptr %9, align 8, !tbaa !31
  %27 = fdiv nsz double %25, %26
  %28 = fneg nsz double %27
  %29 = call nsz double @llvm.exp.f64(double %28)
  %30 = fmul nsz double %22, %29
  %31 = load ptr, ptr %2, align 8, !tbaa !22
  %32 = getelementptr inbounds nuw %struct.LoudNormContext, ptr %31, i32 0, i32 17
  %33 = load i32, ptr %6, align 4, !tbaa !40
  %34 = sext i32 %33 to i64
  %35 = getelementptr inbounds [21 x double], ptr %32, i64 0, i64 %34
  store double %30, ptr %35, align 8, !tbaa !31
  %36 = load ptr, ptr %2, align 8, !tbaa !22
  %37 = getelementptr inbounds nuw %struct.LoudNormContext, ptr %36, i32 0, i32 17
  %38 = load i32, ptr %6, align 4, !tbaa !40
  %39 = sext i32 %38 to i64
  %40 = getelementptr inbounds [21 x double], ptr %37, i64 0, i64 %39
  %41 = load double, ptr %40, align 8, !tbaa !31
  %42 = load double, ptr %3, align 8, !tbaa !31
  %43 = fadd nsz double %42, %41
  store double %43, ptr %3, align 8, !tbaa !31
  call void @llvm.lifetime.end.p0(i64 4, ptr %10) #7
  br label %44

44:                                               ; preds = %19
  %45 = load i32, ptr %6, align 4, !tbaa !40
  %46 = add nsw i32 %45, 1
  store i32 %46, ptr %6, align 4, !tbaa !40
  br label %16, !llvm.loop !85

47:                                               ; preds = %16
  %48 = load double, ptr %3, align 8, !tbaa !31
  %49 = fdiv nsz double 1.000000e+00, %48
  store double %49, ptr %5, align 8, !tbaa !31
  store i32 0, ptr %6, align 4, !tbaa !40
  br label %50

50:                                               ; preds = %62, %47
  %51 = load i32, ptr %6, align 4, !tbaa !40
  %52 = icmp slt i32 %51, 21
  br i1 %52, label %53, label %65

53:                                               ; preds = %50
  %54 = load double, ptr %5, align 8, !tbaa !31
  %55 = load ptr, ptr %2, align 8, !tbaa !22
  %56 = getelementptr inbounds nuw %struct.LoudNormContext, ptr %55, i32 0, i32 17
  %57 = load i32, ptr %6, align 4, !tbaa !40
  %58 = sext i32 %57 to i64
  %59 = getelementptr inbounds [21 x double], ptr %56, i64 0, i64 %58
  %60 = load double, ptr %59, align 8, !tbaa !31
  %61 = fmul nsz double %60, %54
  store double %61, ptr %59, align 8, !tbaa !31
  br label %62

62:                                               ; preds = %53
  %63 = load i32, ptr %6, align 4, !tbaa !40
  %64 = add nsw i32 %63, 1
  store i32 %64, ptr %6, align 4, !tbaa !40
  br label %50, !llvm.loop !86

65:                                               ; preds = %50
  call void @llvm.lifetime.end.p0(i64 8, ptr %9) #7
  call void @llvm.lifetime.end.p0(i64 8, ptr %8) #7
  call void @llvm.lifetime.end.p0(i64 4, ptr %7) #7
  call void @llvm.lifetime.end.p0(i64 4, ptr %6) #7
  call void @llvm.lifetime.end.p0(i64 8, ptr %5) #7
  call void @llvm.lifetime.end.p0(i64 8, ptr %4) #7
  call void @llvm.lifetime.end.p0(i64 8, ptr %3) #7
  ret void
}

; Function Attrs: inlinehint nounwind uwtable
define internal i32 @frame_size(i32 noundef %0, i32 noundef %1) #4 {
  %3 = alloca i32, align 4
  %4 = alloca i32, align 4
  %5 = alloca i32, align 4
  store i32 %0, ptr %3, align 4, !tbaa !40
  store i32 %1, ptr %4, align 4, !tbaa !40
  call void @llvm.lifetime.start.p0(i64 4, ptr %5) #7
  %6 = load i32, ptr %3, align 4, !tbaa !40
  %7 = sitofp i32 %6 to double
  %8 = load i32, ptr %4, align 4, !tbaa !40
  %9 = sitofp i32 %8 to double
  %10 = fdiv nsz double %9, 1.000000e+03
  %11 = fmul nsz double %7, %10
  %12 = call nsz double @llvm.round.f64(double %11)
  %13 = fptosi double %12 to i32
  store i32 %13, ptr %5, align 4, !tbaa !40
  %14 = load i32, ptr %5, align 4, !tbaa !40
  %15 = load i32, ptr %5, align 4, !tbaa !40
  %16 = srem i32 %15, 2
  %17 = add nsw i32 %14, %16
  call void @llvm.lifetime.end.p0(i64 4, ptr %5) #7
  ret i32 %17
}

; Function Attrs: nounwind uwtable
define internal i32 @config_input(ptr noundef %0) #1 {
  %2 = alloca i32, align 4
  %3 = alloca ptr, align 8
  %4 = alloca ptr, align 8
  %5 = alloca ptr, align 8
  %6 = alloca i32, align 4
  store ptr %0, ptr %3, align 8, !tbaa !49
  call void @llvm.lifetime.start.p0(i64 8, ptr %4) #7
  %7 = load ptr, ptr %3, align 8, !tbaa !49
  %8 = getelementptr inbounds nuw %struct.AVFilterLink, ptr %7, i32 0, i32 2
  %9 = load ptr, ptr %8, align 8, !tbaa !70
  store ptr %9, ptr %4, align 8, !tbaa !4
  call void @llvm.lifetime.start.p0(i64 8, ptr %5) #7
  %10 = load ptr, ptr %4, align 8, !tbaa !4
  %11 = getelementptr inbounds nuw %struct.AVFilterContext, ptr %10, i32 0, i32 9
  %12 = load ptr, ptr %11, align 8, !tbaa !9
  store ptr %12, ptr %5, align 8, !tbaa !22
  %13 = load ptr, ptr %3, align 8, !tbaa !49
  %14 = getelementptr inbounds nuw %struct.AVFilterLink, ptr %13, i32 0, i32 12
  %15 = getelementptr inbounds nuw %struct.AVChannelLayout, ptr %14, i32 0, i32 1
  %16 = load i32, ptr %15, align 4, !tbaa !71
  %17 = load ptr, ptr %3, align 8, !tbaa !49
  %18 = getelementptr inbounds nuw %struct.AVFilterLink, ptr %17, i32 0, i32 11
  %19 = load i32, ptr %18, align 8, !tbaa !54
  %20 = sext i32 %19 to i64
  %21 = call ptr @ff_ebur128_init(i32 noundef %16, i64 noundef %20, i64 noundef 0, i32 noundef 31)
  %22 = load ptr, ptr %5, align 8, !tbaa !22
  %23 = getelementptr inbounds nuw %struct.LoudNormContext, ptr %22, i32 0, i32 36
  store ptr %21, ptr %23, align 8, !tbaa !38
  %24 = load ptr, ptr %5, align 8, !tbaa !22
  %25 = getelementptr inbounds nuw %struct.LoudNormContext, ptr %24, i32 0, i32 36
  %26 = load ptr, ptr %25, align 8, !tbaa !38
  %27 = icmp ne ptr %26, null
  br i1 %27, label %29, label %28

28:                                               ; preds = %1
  store i32 -12, ptr %2, align 4
  store i32 1, ptr %6, align 4
  br label %172

29:                                               ; preds = %1
  %30 = load ptr, ptr %3, align 8, !tbaa !49
  %31 = getelementptr inbounds nuw %struct.AVFilterLink, ptr %30, i32 0, i32 12
  %32 = getelementptr inbounds nuw %struct.AVChannelLayout, ptr %31, i32 0, i32 1
  %33 = load i32, ptr %32, align 4, !tbaa !71
  %34 = load ptr, ptr %3, align 8, !tbaa !49
  %35 = getelementptr inbounds nuw %struct.AVFilterLink, ptr %34, i32 0, i32 11
  %36 = load i32, ptr %35, align 8, !tbaa !54
  %37 = sext i32 %36 to i64
  %38 = call ptr @ff_ebur128_init(i32 noundef %33, i64 noundef %37, i64 noundef 0, i32 noundef 31)
  %39 = load ptr, ptr %5, align 8, !tbaa !22
  %40 = getelementptr inbounds nuw %struct.LoudNormContext, ptr %39, i32 0, i32 37
  store ptr %38, ptr %40, align 8, !tbaa !39
  %41 = load ptr, ptr %5, align 8, !tbaa !22
  %42 = getelementptr inbounds nuw %struct.LoudNormContext, ptr %41, i32 0, i32 37
  %43 = load ptr, ptr %42, align 8, !tbaa !39
  %44 = icmp ne ptr %43, null
  br i1 %44, label %46, label %45

45:                                               ; preds = %29
  store i32 -12, ptr %2, align 4
  store i32 1, ptr %6, align 4
  br label %172

46:                                               ; preds = %29
  %47 = load ptr, ptr %3, align 8, !tbaa !49
  %48 = getelementptr inbounds nuw %struct.AVFilterLink, ptr %47, i32 0, i32 12
  %49 = getelementptr inbounds nuw %struct.AVChannelLayout, ptr %48, i32 0, i32 1
  %50 = load i32, ptr %49, align 4, !tbaa !71
  %51 = icmp eq i32 %50, 1
  br i1 %51, label %52, label %66

52:                                               ; preds = %46
  %53 = load ptr, ptr %5, align 8, !tbaa !22
  %54 = getelementptr inbounds nuw %struct.LoudNormContext, ptr %53, i32 0, i32 10
  %55 = load i32, ptr %54, align 4, !tbaa !72
  %56 = icmp ne i32 %55, 0
  br i1 %56, label %57, label %66

57:                                               ; preds = %52
  %58 = load ptr, ptr %5, align 8, !tbaa !22
  %59 = getelementptr inbounds nuw %struct.LoudNormContext, ptr %58, i32 0, i32 36
  %60 = load ptr, ptr %59, align 8, !tbaa !38
  %61 = call i32 @ff_ebur128_set_channel(ptr noundef %60, i32 noundef 0, i32 noundef 6)
  %62 = load ptr, ptr %5, align 8, !tbaa !22
  %63 = getelementptr inbounds nuw %struct.LoudNormContext, ptr %62, i32 0, i32 37
  %64 = load ptr, ptr %63, align 8, !tbaa !39
  %65 = call i32 @ff_ebur128_set_channel(ptr noundef %64, i32 noundef 0, i32 noundef 6)
  br label %66

66:                                               ; preds = %57, %52, %46
  %67 = load ptr, ptr %3, align 8, !tbaa !49
  %68 = getelementptr inbounds nuw %struct.AVFilterLink, ptr %67, i32 0, i32 11
  %69 = load i32, ptr %68, align 8, !tbaa !54
  %70 = call i32 @frame_size(i32 noundef %69, i32 noundef 3000)
  %71 = load ptr, ptr %3, align 8, !tbaa !49
  %72 = getelementptr inbounds nuw %struct.AVFilterLink, ptr %71, i32 0, i32 12
  %73 = getelementptr inbounds nuw %struct.AVChannelLayout, ptr %72, i32 0, i32 1
  %74 = load i32, ptr %73, align 4, !tbaa !71
  %75 = mul nsw i32 %70, %74
  %76 = load ptr, ptr %5, align 8, !tbaa !22
  %77 = getelementptr inbounds nuw %struct.LoudNormContext, ptr %76, i32 0, i32 13
  store i32 %75, ptr %77, align 8, !tbaa !73
  %78 = load ptr, ptr %5, align 8, !tbaa !22
  %79 = getelementptr inbounds nuw %struct.LoudNormContext, ptr %78, i32 0, i32 13
  %80 = load i32, ptr %79, align 8, !tbaa !73
  %81 = sext i32 %80 to i64
  %82 = call ptr @av_malloc_array(i64 noundef %81, i64 noundef 8)
  %83 = load ptr, ptr %5, align 8, !tbaa !22
  %84 = getelementptr inbounds nuw %struct.LoudNormContext, ptr %83, i32 0, i32 12
  store ptr %82, ptr %84, align 8, !tbaa !74
  %85 = load ptr, ptr %5, align 8, !tbaa !22
  %86 = getelementptr inbounds nuw %struct.LoudNormContext, ptr %85, i32 0, i32 12
  %87 = load ptr, ptr %86, align 8, !tbaa !74
  %88 = icmp ne ptr %87, null
  br i1 %88, label %90, label %89

89:                                               ; preds = %66
  store i32 -12, ptr %2, align 4
  store i32 1, ptr %6, align 4
  br label %172

90:                                               ; preds = %66
  %91 = load ptr, ptr %3, align 8, !tbaa !49
  %92 = getelementptr inbounds nuw %struct.AVFilterLink, ptr %91, i32 0, i32 11
  %93 = load i32, ptr %92, align 8, !tbaa !54
  %94 = call i32 @frame_size(i32 noundef %93, i32 noundef 210)
  %95 = load ptr, ptr %3, align 8, !tbaa !49
  %96 = getelementptr inbounds nuw %struct.AVFilterLink, ptr %95, i32 0, i32 12
  %97 = getelementptr inbounds nuw %struct.AVChannelLayout, ptr %96, i32 0, i32 1
  %98 = load i32, ptr %97, align 4, !tbaa !71
  %99 = mul nsw i32 %94, %98
  %100 = load ptr, ptr %5, align 8, !tbaa !22
  %101 = getelementptr inbounds nuw %struct.LoudNormContext, ptr %100, i32 0, i32 24
  store i32 %99, ptr %101, align 4, !tbaa !75
  %102 = load ptr, ptr %5, align 8, !tbaa !22
  %103 = getelementptr inbounds nuw %struct.LoudNormContext, ptr %102, i32 0, i32 13
  %104 = load i32, ptr %103, align 8, !tbaa !73
  %105 = sext i32 %104 to i64
  %106 = call ptr @av_malloc_array(i64 noundef %105, i64 noundef 8)
  %107 = load ptr, ptr %5, align 8, !tbaa !22
  %108 = getelementptr inbounds nuw %struct.LoudNormContext, ptr %107, i32 0, i32 21
  store ptr %106, ptr %108, align 8, !tbaa !76
  %109 = load ptr, ptr %5, align 8, !tbaa !22
  %110 = getelementptr inbounds nuw %struct.LoudNormContext, ptr %109, i32 0, i32 21
  %111 = load ptr, ptr %110, align 8, !tbaa !76
  %112 = icmp ne ptr %111, null
  br i1 %112, label %114, label %113

113:                                              ; preds = %90
  store i32 -12, ptr %2, align 4
  store i32 1, ptr %6, align 4
  br label %172

114:                                              ; preds = %90
  %115 = load ptr, ptr %3, align 8, !tbaa !49
  %116 = getelementptr inbounds nuw %struct.AVFilterLink, ptr %115, i32 0, i32 12
  %117 = getelementptr inbounds nuw %struct.AVChannelLayout, ptr %116, i32 0, i32 1
  %118 = load i32, ptr %117, align 4, !tbaa !71
  %119 = sext i32 %118 to i64
  %120 = call ptr @av_malloc_array(i64 noundef %119, i64 noundef 8)
  %121 = load ptr, ptr %5, align 8, !tbaa !22
  %122 = getelementptr inbounds nuw %struct.LoudNormContext, ptr %121, i32 0, i32 22
  store ptr %120, ptr %122, align 8, !tbaa !77
  %123 = load ptr, ptr %5, align 8, !tbaa !22
  %124 = getelementptr inbounds nuw %struct.LoudNormContext, ptr %123, i32 0, i32 22
  %125 = load ptr, ptr %124, align 8, !tbaa !77
  %126 = icmp ne ptr %125, null
  br i1 %126, label %128, label %127

127:                                              ; preds = %114
  store i32 -12, ptr %2, align 4
  store i32 1, ptr %6, align 4
  br label %172

128:                                              ; preds = %114
  %129 = load ptr, ptr %5, align 8, !tbaa !22
  call void @init_gaussian_filter(ptr noundef %129)
  %130 = load ptr, ptr %5, align 8, !tbaa !22
  %131 = getelementptr inbounds nuw %struct.LoudNormContext, ptr %130, i32 0, i32 23
  store i32 0, ptr %131, align 8, !tbaa !78
  %132 = load ptr, ptr %5, align 8, !tbaa !22
  %133 = getelementptr inbounds nuw %struct.LoudNormContext, ptr %132, i32 0, i32 15
  store i32 0, ptr %133, align 8, !tbaa !79
  %134 = load ptr, ptr %5, align 8, !tbaa !22
  %135 = getelementptr inbounds nuw %struct.LoudNormContext, ptr %134, i32 0, i32 14
  store i32 0, ptr %135, align 4, !tbaa !80
  %136 = load ptr, ptr %3, align 8, !tbaa !49
  %137 = getelementptr inbounds nuw %struct.AVFilterLink, ptr %136, i32 0, i32 12
  %138 = getelementptr inbounds nuw %struct.AVChannelLayout, ptr %137, i32 0, i32 1
  %139 = load i32, ptr %138, align 4, !tbaa !71
  %140 = load ptr, ptr %5, align 8, !tbaa !22
  %141 = getelementptr inbounds nuw %struct.LoudNormContext, ptr %140, i32 0, i32 35
  store i32 %139, ptr %141, align 4, !tbaa !41
  %142 = load ptr, ptr %5, align 8, !tbaa !22
  %143 = getelementptr inbounds nuw %struct.LoudNormContext, ptr %142, i32 0, i32 19
  store i32 1, ptr %143, align 8, !tbaa !81
  %144 = load ptr, ptr %5, align 8, !tbaa !22
  %145 = getelementptr inbounds nuw %struct.LoudNormContext, ptr %144, i32 0, i32 25
  store i32 0, ptr %145, align 8, !tbaa !82
  %146 = load ptr, ptr %5, align 8, !tbaa !22
  %147 = getelementptr inbounds nuw %struct.LoudNormContext, ptr %146, i32 0, i32 8
  %148 = load double, ptr %147, align 8, !tbaa !37
  %149 = fdiv nsz double %148, 2.000000e+01
  %150 = call nsz double @llvm.pow.f64(double 1.000000e+01, double %149)
  %151 = load ptr, ptr %5, align 8, !tbaa !22
  %152 = getelementptr inbounds nuw %struct.LoudNormContext, ptr %151, i32 0, i32 8
  store double %150, ptr %152, align 8, !tbaa !37
  %153 = load ptr, ptr %5, align 8, !tbaa !22
  %154 = getelementptr inbounds nuw %struct.LoudNormContext, ptr %153, i32 0, i32 3
  %155 = load double, ptr %154, align 8, !tbaa !35
  %156 = fdiv nsz double %155, 2.000000e+01
  %157 = call nsz double @llvm.pow.f64(double 1.000000e+01, double %156)
  %158 = load ptr, ptr %5, align 8, !tbaa !22
  %159 = getelementptr inbounds nuw %struct.LoudNormContext, ptr %158, i32 0, i32 3
  store double %157, ptr %159, align 8, !tbaa !35
  %160 = load ptr, ptr %3, align 8, !tbaa !49
  %161 = getelementptr inbounds nuw %struct.AVFilterLink, ptr %160, i32 0, i32 11
  %162 = load i32, ptr %161, align 8, !tbaa !54
  %163 = call i32 @frame_size(i32 noundef %162, i32 noundef 10)
  %164 = load ptr, ptr %5, align 8, !tbaa !22
  %165 = getelementptr inbounds nuw %struct.LoudNormContext, ptr %164, i32 0, i32 29
  store i32 %163, ptr %165, align 8, !tbaa !83
  %166 = load ptr, ptr %3, align 8, !tbaa !49
  %167 = getelementptr inbounds nuw %struct.AVFilterLink, ptr %166, i32 0, i32 11
  %168 = load i32, ptr %167, align 8, !tbaa !54
  %169 = call i32 @frame_size(i32 noundef %168, i32 noundef 100)
  %170 = load ptr, ptr %5, align 8, !tbaa !22
  %171 = getelementptr inbounds nuw %struct.LoudNormContext, ptr %170, i32 0, i32 30
  store i32 %169, ptr %171, align 4, !tbaa !84
  store i32 0, ptr %2, align 4
  store i32 1, ptr %6, align 4
  br label %172

172:                                              ; preds = %128, %127, %113, %89, %45, %28
  call void @llvm.lifetime.end.p0(i64 8, ptr %5) #7
  call void @llvm.lifetime.end.p0(i64 8, ptr %4) #7
  %173 = load i32, ptr %2, align 4
  ret i32 %173
}