; Function Attrs: nounwind uwtable
define internal range(i32 -12, 1) i32 @config_input(ptr noundef readonly captures(none) %0) #2 {
  %2 = getelementptr inbounds nuw i8, ptr %0, i64 16
  %3 = load ptr, ptr %2, align 8, !tbaa !75
  %4 = getelementptr inbounds nuw i8, ptr %3, i64 72
  %5 = load ptr, ptr %4, align 8, !tbaa !4
  %6 = getelementptr inbounds nuw i8, ptr %0, i64 76
  %7 = load i32, ptr %6, align 4, !tbaa !67
  %8 = getelementptr inbounds nuw i8, ptr %0, i64 64
  %9 = load i32, ptr %8, align 8, !tbaa !47
  %10 = sext i32 %9 to i64
  %11 = tail call ptr @ff_ebur128_init(i32 noundef %7, i64 noundef %10, i64 noundef 0, i32 noundef 31) #10
  %12 = getelementptr inbounds nuw i8, ptr %5, i64 856
  store ptr %11, ptr %12, align 8, !tbaa !33
  %.not = icmp eq ptr %11, null
  br i1 %.not, label %110, label %13

13:                                               ; preds = %1
  %14 = load i32, ptr %6, align 4, !tbaa !67
  %15 = load i32, ptr %8, align 8, !tbaa !47
  %16 = sext i32 %15 to i64
  %17 = tail call ptr @ff_ebur128_init(i32 noundef %14, i64 noundef %16, i64 noundef 0, i32 noundef 31) #10
  %18 = getelementptr inbounds nuw i8, ptr %5, i64 864
  store ptr %17, ptr %18, align 8, !tbaa !34
  %.not45 = icmp eq ptr %17, null
  br i1 %.not45, label %110, label %19

19:                                               ; preds = %13
  %20 = load i32, ptr %6, align 4, !tbaa !67
  %21 = icmp eq i32 %20, 1
  br i1 %21, label %22, label %30

22:                                               ; preds = %19
  %23 = getelementptr inbounds nuw i8, ptr %5, i64 76
  %24 = load i32, ptr %23, align 4, !tbaa !76
  %.not46 = icmp eq i32 %24, 0
  br i1 %.not46, label %30, label %25

25:                                               ; preds = %22
  %26 = load ptr, ptr %12, align 8, !tbaa !33
  %27 = tail call i32 @ff_ebur128_set_channel(ptr noundef %26, i32 noundef 0, i32 noundef 6) #10
  %28 = load ptr, ptr %18, align 8, !tbaa !34
  %29 = tail call i32 @ff_ebur128_set_channel(ptr noundef %28, i32 noundef 0, i32 noundef 6) #10
  %.pre = load i32, ptr %6, align 4, !tbaa !67
  br label %30

30:                                               ; preds = %25, %22, %19
  %31 = phi i32 [ %.pre, %25 ], [ 1, %22 ], [ %20, %19 ]
  %32 = load i32, ptr %8, align 8, !tbaa !47
  %33 = sitofp i32 %32 to double
  %34 = fmul nsz double %33, 3.000000e+00
  %35 = tail call nsz double @llvm.round.f64(double %34)
  %36 = fptosi double %35 to i32
  %37 = srem i32 %36, 2
  %38 = add nsw i32 %37, %36
  %39 = mul nsw i32 %38, %31
  %40 = getelementptr inbounds nuw i8, ptr %5, i64 96
  store i32 %39, ptr %40, align 8, !tbaa !66
  %41 = sext i32 %39 to i64
  %42 = tail call ptr @av_malloc_array(i64 noundef %41, i64 noundef 8) #10
  %43 = getelementptr inbounds nuw i8, ptr %5, i64 88
  store ptr %42, ptr %43, align 8, !tbaa !69
  %.not47 = icmp eq ptr %42, null
  br i1 %.not47, label %110, label %44

44:                                               ; preds = %30
  %45 = load i32, ptr %8, align 8, !tbaa !47
  %46 = sitofp i32 %45 to double
  %47 = fmul nsz double %46, 2.100000e-01
  %48 = tail call nsz double @llvm.round.f64(double %47)
  %49 = fptosi double %48 to i32
  %50 = srem i32 %49, 2
  %51 = add nsw i32 %50, %49
  %52 = load i32, ptr %6, align 4, !tbaa !67
  %53 = mul nsw i32 %51, %52
  %54 = getelementptr inbounds nuw i8, ptr %5, i64 572
  store i32 %53, ptr %54, align 4, !tbaa !71
  %55 = load i32, ptr %40, align 8, !tbaa !66
  %56 = sext i32 %55 to i64
  %57 = tail call ptr @av_malloc_array(i64 noundef %56, i64 noundef 8) #10
  %58 = getelementptr inbounds nuw i8, ptr %5, i64 552
  store ptr %57, ptr %58, align 8, !tbaa !77
  %.not48 = icmp eq ptr %57, null
  br i1 %.not48, label %110, label %59

59:                                               ; preds = %44
  %60 = load i32, ptr %6, align 4, !tbaa !67
  %61 = sext i32 %60 to i64
  %62 = tail call ptr @av_malloc_array(i64 noundef %61, i64 noundef 8) #10
  %63 = getelementptr inbounds nuw i8, ptr %5, i64 560
  store ptr %62, ptr %63, align 8, !tbaa !78
  %.not49 = icmp eq ptr %62, null
  br i1 %.not49, label %110, label %64

64:                                               ; preds = %59
  %65 = getelementptr inbounds nuw i8, ptr %5, i64 352
  br label %66

66:                                               ; preds = %66, %64
  %indvars.iv.i = phi i64 [ 0, %64 ], [ %indvars.iv.next.i, %66 ]
  %.018.i = phi double [ 0.000000e+00, %64 ], [ %74, %66 ]
  %67 = trunc i64 %indvars.iv.i to i32
  %68 = add i32 %67, -10
  %69 = sitofp i32 %68 to double
  %square.i = fmul nsz double %69, %69
  %70 = fdiv nsz double %square.i, -2.450000e+01
  %71 = tail call nsz double @llvm.exp.f64(double %70)
  %72 = fmul nsz double %71, 0x3FBD2E05F2171982
  %73 = getelementptr inbounds nuw [21 x double], ptr %65, i64 0, i64 %indvars.iv.i
  store double %72, ptr %73, align 8, !tbaa !40
  %74 = fadd nsz double %.018.i, %72
  %indvars.iv.next.i = add nuw nsw i64 %indvars.iv.i, 1
  %exitcond.not.i = icmp eq i64 %indvars.iv.next.i, 21
  br i1 %exitcond.not.i, label %75, label %66, !llvm.loop !79

75:                                               ; preds = %66
  %76 = fdiv nsz double 1.000000e+00, %74
  br label %77

77:                                               ; preds = %77, %75
  %indvars.iv21.i = phi i64 [ 0, %75 ], [ %indvars.iv.next22.i, %77 ]
  %78 = getelementptr inbounds nuw [21 x double], ptr %65, i64 0, i64 %indvars.iv21.i
  %79 = load double, ptr %78, align 8, !tbaa !40
  %80 = fmul nsz double %76, %79
  store double %80, ptr %78, align 8, !tbaa !40
  %indvars.iv.next22.i = add nuw nsw i64 %indvars.iv21.i, 1
  %exitcond24.not.i = icmp eq i64 %indvars.iv.next22.i, 21
  br i1 %exitcond24.not.i, label %init_gaussian_filter.exit, label %77, !llvm.loop !80

init_gaussian_filter.exit:                        ; preds = %77
  %81 = getelementptr inbounds nuw i8, ptr %5, i64 568
  store i32 0, ptr %81, align 8, !tbaa !81
  %82 = getelementptr inbounds nuw i8, ptr %5, i64 104
  store i32 0, ptr %82, align 8, !tbaa !82
  %83 = getelementptr inbounds nuw i8, ptr %5, i64 100
  store i32 0, ptr %83, align 4, !tbaa !72
  %84 = load i32, ptr %6, align 4, !tbaa !67
  %85 = getelementptr inbounds nuw i8, ptr %5, i64 852
  store i32 %84, ptr %85, align 4, !tbaa !35
  %86 = getelementptr inbounds nuw i8, ptr %5, i64 528
  store i32 1, ptr %86, align 8, !tbaa !83
  %87 = getelementptr inbounds nuw i8, ptr %5, i64 576
  store i32 0, ptr %87, align 8, !tbaa !84
  %88 = getelementptr inbounds nuw i8, ptr %5, i64 64
  %89 = load double, ptr %88, align 8, !tbaa !32
  %90 = fdiv nsz double %89, 2.000000e+01
  %91 = tail call nsz double @llvm.pow.f64(double 1.000000e+01, double %90)
  store double %91, ptr %88, align 8, !tbaa !32
  %92 = getelementptr inbounds nuw i8, ptr %5, i64 24
  %93 = load double, ptr %92, align 8, !tbaa !30
  %94 = fdiv nsz double %93, 2.000000e+01
  %95 = tail call nsz double @llvm.pow.f64(double 1.000000e+01, double %94)
  store double %95, ptr %92, align 8, !tbaa !30
  %96 = load i32, ptr %8, align 8, !tbaa !47
  %97 = sitofp i32 %96 to double
  %98 = fmul nsz double %97, 1.000000e-02
  %99 = tail call nsz double @llvm.round.f64(double %98)
  %100 = fptosi double %99 to i32
  %101 = srem i32 %100, 2
  %102 = add nsw i32 %101, %100
  %103 = getelementptr inbounds nuw i8, ptr %5, i64 592
  store i32 %102, ptr %103, align 8, !tbaa !85
  %104 = fmul nsz double %97, 1.000000e-01
  %105 = tail call nsz double @llvm.round.f64(double %104)
  %106 = fptosi double %105 to i32
  %107 = srem i32 %106, 2
  %108 = add nsw i32 %107, %106
  %109 = getelementptr inbounds nuw i8, ptr %5, i64 596
  store i32 %108, ptr %109, align 4, !tbaa !86
  br label %110

110:                                              ; preds = %59, %44, %30, %13, %1, %init_gaussian_filter.exit
  %.0 = phi i32 [ 0, %init_gaussian_filter.exit ], [ -12, %1 ], [ -12, %13 ], [ -12, %30 ], [ -12, %44 ], [ -12, %59 ]
  ret i32 %.0
}